; ModuleID = 'twoopt.bc'
source_filename = "two.cc"
target datalayout = "e-m:e-i64:64-f80:128-n8:16:32:64-S128"
target triple = "x86_64-unknown-linux-gnu"

%struct.B = type { %struct.A }
%struct.A = type { i32 (...)** }

$_ZN1BC2Ev = comdat any

$_ZN1AC2Ev = comdat any

$_ZN1B3fctEv = comdat any

$_ZN1A3fctEv = comdat any

$_ZTV1B = comdat any

$_ZTS1B = comdat any

$_ZTS1A = comdat any

$_ZTI1A = comdat any

$_ZTI1B = comdat any

$_ZTV1A = comdat any

@_ZTV1B = linkonce_odr dso_local unnamed_addr constant { [3 x i8*] } { [3 x i8*] [i8* null, i8* bitcast ({ i8*, i8*, i8* }* @_ZTI1B to i8*), i8* bitcast (i32 (%struct.B*)* @_ZN1B3fctEv to i8*)] }, comdat, align 8
@_ZTVN10__cxxabiv120__si_class_type_infoE = external dso_local global i8*
@_ZTS1B = linkonce_odr dso_local constant [3 x i8] c"1B\00", comdat, align 1
@_ZTVN10__cxxabiv117__class_type_infoE = external dso_local global i8*
@_ZTS1A = linkonce_odr dso_local constant [3 x i8] c"1A\00", comdat, align 1
@_ZTI1A = linkonce_odr dso_local constant { i8*, i8* } { i8* bitcast (i8** getelementptr inbounds (i8*, i8** @_ZTVN10__cxxabiv117__class_type_infoE, i64 2) to i8*), i8* getelementptr inbounds ([3 x i8], [3 x i8]* @_ZTS1A, i32 0, i32 0) }, comdat, align 8
@_ZTI1B = linkonce_odr dso_local constant { i8*, i8*, i8* } { i8* bitcast (i8** getelementptr inbounds (i8*, i8** @_ZTVN10__cxxabiv120__si_class_type_infoE, i64 2) to i8*), i8* getelementptr inbounds ([3 x i8], [3 x i8]* @_ZTS1B, i32 0, i32 0), i8* bitcast ({ i8*, i8* }* @_ZTI1A to i8*) }, comdat, align 8
@_ZTV1A = linkonce_odr dso_local unnamed_addr constant { [3 x i8*] } { [3 x i8*] [i8* null, i8* bitcast ({ i8*, i8* }* @_ZTI1A to i8*), i8* bitcast (i32 (%struct.A*)* @_ZN1A3fctEv to i8*)] }, comdat, align 8
@llvm.global_ctors = appending global [1 x { i32, void ()*, i8* }] [{ i32, void ()*, i8* } { i32 0, void ()* @__cpi__init.module, i8* null }]

; Function Attrs: noinline norecurse optnone uwtable
define dso_local i32 @main() #0 {
  %1 = alloca i32, align 4
  %2 = alloca %struct.B, align 8
  %3 = alloca %struct.A*, align 8
  store i32 0, i32* %1, align 4
  call void @_ZN1BC2Ev(%struct.B* %2) #2
  %4 = bitcast %struct.B* %2 to %struct.A*
  store %struct.A* %4, %struct.A** %3, align 8
  %5 = load %struct.A*, %struct.A** %3, align 8
  %6 = bitcast %struct.A* %5 to i32 (%struct.A*)***
  %7 = load i32 (%struct.A*)**, i32 (%struct.A*)*** %6, align 8
  %8 = getelementptr inbounds i32 (%struct.A*)*, i32 (%struct.A*)** %7, i64 0
  %9 = load i32 (%struct.A*)*, i32 (%struct.A*)** %8, align 8
  %10 = call i32 %9(%struct.A* %5)
  ret i32 %10
}

; Function Attrs: noinline nounwind optnone uwtable
define linkonce_odr dso_local void @_ZN1BC2Ev(%struct.B*) unnamed_addr #1 comdat align 2 {
  %2 = alloca %struct.B*, align 8
  store %struct.B* %0, %struct.B** %2, align 8
  %3 = load %struct.B*, %struct.B** %2, align 8
  %4 = bitcast %struct.B* %3 to %struct.A*
  call void @_ZN1AC2Ev(%struct.A* %4) #2
  %5 = bitcast %struct.B* %3 to i32 (...)***
  store i32 (...)** bitcast (i8** getelementptr inbounds ({ [3 x i8*] }, { [3 x i8*] }* @_ZTV1B, i32 0, inrange i32 0, i32 2) to i32 (...)**), i32 (...)*** %5, align 8
  ret void
}

; Function Attrs: noinline nounwind optnone uwtable
define linkonce_odr dso_local void @_ZN1AC2Ev(%struct.A*) unnamed_addr #1 comdat align 2 {
  %2 = alloca %struct.A*, align 8
  store %struct.A* %0, %struct.A** %2, align 8
  %3 = load %struct.A*, %struct.A** %2, align 8
  %4 = bitcast %struct.A* %3 to i32 (...)***
  store i32 (...)** bitcast (i8** getelementptr inbounds ({ [3 x i8*] }, { [3 x i8*] }* @_ZTV1A, i32 0, inrange i32 0, i32 2) to i32 (...)**), i32 (...)*** %4, align 8
  ret void
}

; Function Attrs: noinline nounwind optnone uwtable
define linkonce_odr dso_local i32 @_ZN1B3fctEv(%struct.B*) unnamed_addr #1 comdat align 2 {
  %2 = alloca %struct.B*, align 8
  store %struct.B* %0, %struct.B** %2, align 8
  %3 = load %struct.B*, %struct.B** %2, align 8
  ret i32 42
}

; Function Attrs: noinline nounwind optnone uwtable
define linkonce_odr dso_local i32 @_ZN1A3fctEv(%struct.A*) unnamed_addr #1 comdat align 2 {
  %2 = alloca %struct.A*, align 8
  store %struct.A* %0, %struct.A** %2, align 8
  %3 = load %struct.A*, %struct.A** %2, align 8
  ret i32 0
}

declare void @__cpi__init()

define internal void @__cpi__init.module() {
  call void @__cpi__init()
  ret void
}

attributes #0 = { noinline norecurse optnone uwtable "correctly-rounded-divide-sqrt-fp-math"="false" "disable-tail-calls"="false" "less-precise-fpmad"="false" "min-legal-vector-width"="0" "no-frame-pointer-elim"="true" "no-frame-pointer-elim-non-leaf" "no-infs-fp-math"="false" "no-jump-tables"="false" "no-nans-fp-math"="false" "no-signed-zeros-fp-math"="false" "no-trapping-math"="false" "stack-protector-buffer-size"="8" "target-cpu"="x86-64" "target-features"="+cx8,+fxsr,+mmx,+sse,+sse2,+x87" "unsafe-fp-math"="false" "use-soft-float"="false" }
attributes #1 = { noinline nounwind optnone uwtable "correctly-rounded-divide-sqrt-fp-math"="false" "disable-tail-calls"="false" "less-precise-fpmad"="false" "min-legal-vector-width"="0" "no-frame-pointer-elim"="true" "no-frame-pointer-elim-non-leaf" "no-infs-fp-math"="false" "no-jump-tables"="false" "no-nans-fp-math"="false" "no-signed-zeros-fp-math"="false" "no-trapping-math"="false" "stack-protector-buffer-size"="8" "target-cpu"="x86-64" "target-features"="+cx8,+fxsr,+mmx,+sse,+sse2,+x87" "unsafe-fp-math"="false" "use-soft-float"="false" }
attributes #2 = { nounwind }

!llvm.module.flags = !{!0}
!llvm.ident = !{!1}

!0 = !{i32 1, !"wchar_size", i32 4}
!1 = !{!"clang version 9.0.1 "}
